; Function Attrs: mustprogress uwtable
define void @_ZN7Archive10SeekToNextEv(ptr noundef nonnull align 8 dereferenceable(57108) %0) local_unnamed_addr #0 align 2 {
  %2 = getelementptr inbounds i8, ptr %0, i64 48832
  %3 = load i64, ptr %2, align 8
  %4 = load ptr, ptr %0, align 8
  %5 = getelementptr inbounds i8, ptr %4, i64 40
  %6 = load ptr, ptr %5, align 8
  tail call void %6(ptr noundef nonnull align 8 dereferenceable(57108) %0, i64 noundef %3, i32 noundef 0)
  ret void
}